target datalayout = "e-m:e-p270:32:32-p271:32:32-p272:64:64-i64:64-i128:128-f80:128-n8:16:32:64-S128"
target triple = "x86_64-unknown-linux-gnu"

%"class.grpc_core::RefCountedPtr.2" = type { ptr }
%"class.grpc_core::RefCounted.3" = type { %"class.grpc_core::RefCount" }
%"class.grpc_core::RefCount" = type { %"struct.std::atomic.0" }
%"struct.std::atomic.0" = type { %"struct.std::__atomic_base.1" }
%"struct.std::__atomic_base.1" = type { i64 }
%struct.grpc_auth_context = type { %"class.grpc_core::RefCounted.3", %"class.grpc_core::RefCountedPtr.2", %struct.grpc_auth_property_array, ptr, %"class.std::unique_ptr" }
%struct.grpc_auth_property_array = type { ptr, i64, i64 }
%"class.std::unique_ptr" = type { %"struct.std::__uniq_ptr_data" }
%"struct.std::__uniq_ptr_data" = type { %"class.std::__uniq_ptr_impl" }
%"class.std::__uniq_ptr_impl" = type { %"class.std::tuple" }
%"class.std::tuple" = type { %"struct.std::_Tuple_impl" }
%"struct.std::_Tuple_impl" = type { %"struct.std::_Head_base.5" }
%"struct.std::_Head_base.5" = type { ptr }
%struct.grpc_auth_property = type { ptr, ptr, i64 }

; Function Attrs: mustprogress nounwind uwtable
define linkonce_odr noundef nonnull align 8 dereferenceable(8) ptr @_ZSt3maxImERKT_S2_S2_(ptr noundef nonnull align 8 dereferenceable(8) %__a, ptr noundef nonnull align 8 dereferenceable(8) %__b) #5 comdat {
entry:
  %retval = alloca ptr, align 8
  %__a.addr = alloca ptr, align 8
  %__b.addr = alloca ptr, align 8
  store ptr %__a, ptr %__a.addr, align 8
  store ptr %__b, ptr %__b.addr, align 8
  %0 = load ptr, ptr %__a.addr, align 8
  %1 = load i64, ptr %0, align 8
  %2 = load ptr, ptr %__b.addr, align 8
  %3 = load i64, ptr %2, align 8
  %cmp = icmp ult i64 %1, %3
  br i1 %cmp, label %if.then, label %if.end

if.then:                                          ; preds = %entry
  %4 = load ptr, ptr %__b.addr, align 8
  store ptr %4, ptr %retval, align 8
  br label %return

if.end:                                           ; preds = %entry
  %5 = load ptr, ptr %__a.addr, align 8
  store ptr %5, ptr %retval, align 8
  br label %return

return:                                           ; preds = %if.end, %if.then
  %6 = load ptr, ptr %retval, align 8
  ret ptr %6
}

; Function Attrs: mustprogress uwtable
define void @_ZN17grpc_auth_context15ensure_capacityEv(ptr noundef nonnull align 8 dereferenceable(56) %this) #4 align 2 {
entry:
  %this.addr = alloca ptr, align 8
  %ref.tmp = alloca i64, align 8
  %ref.tmp5 = alloca i64, align 8
  store ptr %this, ptr %this.addr, align 8
  %this1 = load ptr, ptr %this.addr, align 8
  %properties_ = getelementptr inbounds %struct.grpc_auth_context, ptr %this1, i32 0, i32 2
  %count = getelementptr inbounds %struct.grpc_auth_property_array, ptr %properties_, i32 0, i32 1
  %0 = load i64, ptr %count, align 8
  %properties_2 = getelementptr inbounds %struct.grpc_auth_context, ptr %this1, i32 0, i32 2
  %capacity = getelementptr inbounds %struct.grpc_auth_property_array, ptr %properties_2, i32 0, i32 2
  %1 = load i64, ptr %capacity, align 8
  %cmp = icmp eq i64 %0, %1
  br i1 %cmp, label %if.then, label %if.end

if.then:                                          ; preds = %entry
  %properties_3 = getelementptr inbounds %struct.grpc_auth_context, ptr %this1, i32 0, i32 2
  %capacity4 = getelementptr inbounds %struct.grpc_auth_property_array, ptr %properties_3, i32 0, i32 2
  %2 = load i64, ptr %capacity4, align 8
  %add = add i64 %2, 8
  store i64 %add, ptr %ref.tmp, align 8
  %properties_6 = getelementptr inbounds %struct.grpc_auth_context, ptr %this1, i32 0, i32 2
  %capacity7 = getelementptr inbounds %struct.grpc_auth_property_array, ptr %properties_6, i32 0, i32 2
  %3 = load i64, ptr %capacity7, align 8
  %mul = mul i64 %3, 2
  store i64 %mul, ptr %ref.tmp5, align 8
  %call = call noundef nonnull align 8 dereferenceable(8) ptr @_ZSt3maxImERKT_S2_S2_(ptr noundef nonnull align 8 dereferenceable(8) %ref.tmp, ptr noundef nonnull align 8 dereferenceable(8) %ref.tmp5)
  %4 = load i64, ptr %call, align 8
  %properties_8 = getelementptr inbounds %struct.grpc_auth_context, ptr %this1, i32 0, i32 2
  %capacity9 = getelementptr inbounds %struct.grpc_auth_property_array, ptr %properties_8, i32 0, i32 2
  store i64 %4, ptr %capacity9, align 8
  %properties_10 = getelementptr inbounds %struct.grpc_auth_context, ptr %this1, i32 0, i32 2
  %array = getelementptr inbounds %struct.grpc_auth_property_array, ptr %properties_10, i32 0, i32 0
  %5 = load ptr, ptr %array, align 8
  %properties_11 = getelementptr inbounds %struct.grpc_auth_context, ptr %this1, i32 0, i32 2
  %capacity12 = getelementptr inbounds %struct.grpc_auth_property_array, ptr %properties_11, i32 0, i32 2
  %6 = load i64, ptr %capacity12, align 8
  %mul13 = mul i64 %6, 24
  %call14 = call ptr @gpr_realloc(ptr noundef %5, i64 noundef %mul13)
  %properties_15 = getelementptr inbounds %struct.grpc_auth_context, ptr %this1, i32 0, i32 2
  %array16 = getelementptr inbounds %struct.grpc_auth_property_array, ptr %properties_15, i32 0, i32 0
  store ptr %call14, ptr %array16, align 8
  br label %if.end

if.end:                                           ; preds = %if.then, %entry
  ret void
}

; Function Attrs: mustprogress uwtable
define void @_ZN17grpc_auth_context12add_propertyEPKcS1_m(ptr noundef nonnull align 8 dereferenceable(56) %this, ptr noundef %name, ptr noundef %value, i64 noundef %value_length) #4 align 2 {
entry:
  %this.addr = alloca ptr, align 8
  %name.addr = alloca ptr, align 8
  %value.addr = alloca ptr, align 8
  %value_length.addr = alloca i64, align 8
  %prop = alloca ptr, align 8
  store ptr %this, ptr %this.addr, align 8
  store ptr %name, ptr %name.addr, align 8
  store ptr %value, ptr %value.addr, align 8
  store i64 %value_length, ptr %value_length.addr, align 8
  %this1 = load ptr, ptr %this.addr, align 8
  call void @_ZN17grpc_auth_context15ensure_capacityEv(ptr noundef nonnull align 8 dereferenceable(56) %this1)
  %properties_ = getelementptr inbounds %struct.grpc_auth_context, ptr %this1, i32 0, i32 2
  %array = getelementptr inbounds %struct.grpc_auth_property_array, ptr %properties_, i32 0, i32 0
  %0 = load ptr, ptr %array, align 8
  %properties_2 = getelementptr inbounds %struct.grpc_auth_context, ptr %this1, i32 0, i32 2
  %count = getelementptr inbounds %struct.grpc_auth_property_array, ptr %properties_2, i32 0, i32 1
  %1 = load i64, ptr %count, align 8
  %inc = add i64 %1, 1
  store i64 %inc, ptr %count, align 8
  %arrayidx = getelementptr inbounds %struct.grpc_auth_property, ptr %0, i64 %1
  store ptr %arrayidx, ptr %prop, align 8
  %2 = load ptr, ptr %name.addr, align 8
  %call = call ptr @gpr_strdup(ptr noundef %2)
  %3 = load ptr, ptr %prop, align 8
  %name3 = getelementptr inbounds %struct.grpc_auth_property, ptr %3, i32 0, i32 0
  store ptr %call, ptr %name3, align 8
  %4 = load i64, ptr %value_length.addr, align 8
  %add = add i64 %4, 1
  %call4 = call ptr @gpr_malloc(i64 noundef %add)
  %5 = load ptr, ptr %prop, align 8
  %value5 = getelementptr inbounds %struct.grpc_auth_property, ptr %5, i32 0, i32 1
  store ptr %call4, ptr %value5, align 8
  %6 = load ptr, ptr %value.addr, align 8
  %cmp = icmp ne ptr %6, null
  br i1 %cmp, label %if.then, label %if.end

if.then:                                          ; preds = %entry
  %7 = load ptr, ptr %prop, align 8
  %value6 = getelementptr inbounds %struct.grpc_auth_property, ptr %7, i32 0, i32 1
  %8 = load ptr, ptr %value6, align 8
  %9 = load ptr, ptr %value.addr, align 8
  %10 = load i64, ptr %value_length.addr, align 8
  call void @llvm.memcpy.p0.p0.i64(ptr align 1 %8, ptr align 1 %9, i64 %10, i1 false)
  br label %if.end

if.end:                                           ; preds = %if.then, %entry
  %11 = load ptr, ptr %prop, align 8
  %value7 = getelementptr inbounds %struct.grpc_auth_property, ptr %11, i32 0, i32 1
  %12 = load ptr, ptr %value7, align 8
  %13 = load i64, ptr %value_length.addr, align 8
  %arrayidx8 = getelementptr inbounds i8, ptr %12, i64 %13
  store i8 0, ptr %arrayidx8, align 1
  %14 = load i64, ptr %value_length.addr, align 8
  %15 = load ptr, ptr %prop, align 8
  %value_length9 = getelementptr inbounds %struct.grpc_auth_property, ptr %15, i32 0, i32 2
  store i64 %14, ptr %value_length9, align 8
  ret void
}