; Function Attrs: mustprogress uwtable
define void @_ZN17grpc_auth_context12add_propertyEPKcS1_m(ptr nocapture noundef nonnull align 8 dereferenceable(56) %this, ptr noundef %name, ptr noundef readonly %value, i64 noundef %value_length) local_unnamed_addr #4 align 2 {
entry:
  %count.i = getelementptr inbounds i8, ptr %this, i64 24
  %0 = load i64, ptr %count.i, align 8
  %capacity.i = getelementptr inbounds i8, ptr %this, i64 32
  %1 = load i64, ptr %capacity.i, align 8
  %cmp.i = icmp eq i64 %0, %1
  %properties_.i = getelementptr inbounds i8, ptr %this, i64 16
  br i1 %cmp.i, label %if.then.i, label %entry._ZN17grpc_auth_context15ensure_capacityEv.exit_crit_edge

entry._ZN17grpc_auth_context15ensure_capacityEv.exit_crit_edge: ; preds = %entry
  %.pre = load ptr, ptr %properties_.i, align 8
  br label %_ZN17grpc_auth_context15ensure_capacityEv.exit

if.then.i:                                        ; preds = %entry
  %add.i = add i64 %0, 8
  %mul.i = shl i64 %0, 1
  %.sroa.speculated.i = tail call i64 @llvm.umax.i64(i64 %add.i, i64 %mul.i)
  store i64 %.sroa.speculated.i, ptr %capacity.i, align 8
  %2 = load ptr, ptr %properties_.i, align 8
  %mul13.i = mul i64 %.sroa.speculated.i, 24
  %call14.i = tail call ptr @gpr_realloc(ptr noundef %2, i64 noundef %mul13.i)
  store ptr %call14.i, ptr %properties_.i, align 8
  %.pre9 = load i64, ptr %count.i, align 8
  br label %_ZN17grpc_auth_context15ensure_capacityEv.exit

_ZN17grpc_auth_context15ensure_capacityEv.exit:   ; preds = %entry._ZN17grpc_auth_context15ensure_capacityEv.exit_crit_edge, %if.then.i
  %3 = phi i64 [ %0, %entry._ZN17grpc_auth_context15ensure_capacityEv.exit_crit_edge ], [ %.pre9, %if.then.i ]
  %4 = phi ptr [ %.pre, %entry._ZN17grpc_auth_context15ensure_capacityEv.exit_crit_edge ], [ %call14.i, %if.then.i ]
  %inc = add i64 %3, 1
  store i64 %inc, ptr %count.i, align 8
  %arrayidx = getelementptr inbounds %struct.grpc_auth_property, ptr %4, i64 %3
  %call = tail call ptr @gpr_strdup(ptr noundef %name)
  store ptr %call, ptr %arrayidx, align 8
  %add = add i64 %value_length, 1
  %call4 = tail call ptr @gpr_malloc(i64 noundef %add)
  %value5 = getelementptr inbounds i8, ptr %arrayidx, i64 8
  store ptr %call4, ptr %value5, align 8
  %cmp.not = icmp eq ptr %value, null
  br i1 %cmp.not, label %if.end, label %if.then

if.then:                                          ; preds = %_ZN17grpc_auth_context15ensure_capacityEv.exit
  tail call void @llvm.memcpy.p0.p0.i64(ptr align 1 %call4, ptr nonnull align 1 %value, i64 %value_length, i1 false)
  %.pre10 = load ptr, ptr %value5, align 8
  br label %if.end

if.end:                                           ; preds = %if.then, %_ZN17grpc_auth_context15ensure_capacityEv.exit
  %5 = phi ptr [ %.pre10, %if.then ], [ %call4, %_ZN17grpc_auth_context15ensure_capacityEv.exit ]
  %arrayidx8 = getelementptr inbounds i8, ptr %5, i64 %value_length
  store i8 0, ptr %arrayidx8, align 1
  %value_length9 = getelementptr inbounds i8, ptr %arrayidx, i64 16
  store i64 %value_length, ptr %value_length9, align 8
  ret void
}